target datalayout = "e-m:e-p270:32:32-p271:32:32-p272:64:64-i64:64-i128:128-f80:128-n8:16:32:64-S128"
target triple = "x86_64-unknown-linux-gnu"

%"class.Assimp::XFileParser" = type { i32, i32, i8, i32, i32, ptr, ptr, i32, ptr }

; Function Attrs: mustprogress nounwind uwtable
define hidden void @_ZN6Assimp11XFileParser18ReadUntilEndOfLineEv(ptr noundef nonnull align 8 dereferenceable(56) %this) #0 align 2 {
entry:
  %this.addr = alloca ptr, align 8
  store ptr %this, ptr %this.addr, align 8
  %this1 = load ptr, ptr %this.addr, align 8
  %mIsBinaryFormat = getelementptr inbounds %"class.Assimp::XFileParser", ptr %this1, i32 0, i32 2
  %0 = load i8, ptr %mIsBinaryFormat, align 8
  %tobool = trunc i8 %0 to i1
  br i1 %tobool, label %if.then, label %if.end

if.then:                                          ; preds = %entry
  br label %while.end

if.end:                                           ; preds = %entry
  br label %while.cond

while.cond:                                       ; preds = %if.end9, %if.end
  %mP = getelementptr inbounds %"class.Assimp::XFileParser", ptr %this1, i32 0, i32 5
  %1 = load ptr, ptr %mP, align 8
  %mEnd = getelementptr inbounds %"class.Assimp::XFileParser", ptr %this1, i32 0, i32 6
  %2 = load ptr, ptr %mEnd, align 8
  %cmp = icmp ult ptr %1, %2
  br i1 %cmp, label %while.body, label %while.end

while.body:                                       ; preds = %while.cond
  %mP2 = getelementptr inbounds %"class.Assimp::XFileParser", ptr %this1, i32 0, i32 5
  %3 = load ptr, ptr %mP2, align 8
  %4 = load i8, ptr %3, align 1
  %conv = sext i8 %4 to i32
  %cmp3 = icmp eq i32 %conv, 10
  br i1 %cmp3, label %if.then7, label %lor.lhs.false

lor.lhs.false:                                    ; preds = %while.body
  %mP4 = getelementptr inbounds %"class.Assimp::XFileParser", ptr %this1, i32 0, i32 5
  %5 = load ptr, ptr %mP4, align 8
  %6 = load i8, ptr %5, align 1
  %conv5 = sext i8 %6 to i32
  %cmp6 = icmp eq i32 %conv5, 13
  br i1 %cmp6, label %if.then7, label %if.end9

if.then7:                                         ; preds = %lor.lhs.false, %while.body
  %mP8 = getelementptr inbounds %"class.Assimp::XFileParser", ptr %this1, i32 0, i32 5
  %7 = load ptr, ptr %mP8, align 8
  %incdec.ptr = getelementptr inbounds i8, ptr %7, i32 1
  store ptr %incdec.ptr, ptr %mP8, align 8
  %mLineNumber = getelementptr inbounds %"class.Assimp::XFileParser", ptr %this1, i32 0, i32 7
  %8 = load i32, ptr %mLineNumber, align 8
  %inc = add i32 %8, 1
  store i32 %inc, ptr %mLineNumber, align 8
  br label %while.end

if.end9:                                          ; preds = %lor.lhs.false
  %mP10 = getelementptr inbounds %"class.Assimp::XFileParser", ptr %this1, i32 0, i32 5
  %9 = load ptr, ptr %mP10, align 8
  %incdec.ptr11 = getelementptr inbounds i8, ptr %9, i32 1
  store ptr %incdec.ptr11, ptr %mP10, align 8
  br label %while.cond, !llvm.loop !7

while.end:                                        ; preds = %if.then7, %while.cond, %if.then
  ret void
}