; Function Attrs: mustprogress nofree norecurse nosync nounwind memory(read, argmem: readwrite, inaccessiblemem: none) uwtable
define hidden void @_ZN6Assimp11XFileParser18ReadUntilEndOfLineEv(ptr nocapture noundef nonnull align 8 dereferenceable(56) %this) local_unnamed_addr #6 align 2 {
entry:
  %mIsBinaryFormat = getelementptr inbounds i8, ptr %this, i64 8
  %0 = load i8, ptr %mIsBinaryFormat, align 8
  %1 = and i8 %0, 1
  %tobool.not = icmp eq i8 %1, 0
  br i1 %tobool.not, label %while.cond.preheader, label %while.end

while.cond.preheader:                             ; preds = %entry
  %mP = getelementptr inbounds i8, ptr %this, i64 24
  %mEnd = getelementptr inbounds i8, ptr %this, i64 32
  %2 = load ptr, ptr %mEnd, align 8
  %mP.promoted = load ptr, ptr %mP, align 8
  %cmp3 = icmp ult ptr %mP.promoted, %2
  br i1 %cmp3, label %while.body, label %while.end

while.body:                                       ; preds = %while.cond.preheader, %if.end9
  %3 = phi ptr [ %incdec.ptr11, %if.end9 ], [ %mP.promoted, %while.cond.preheader ]
  %4 = load i8, ptr %3, align 1
  switch i8 %4, label %if.end9 [
    i8 10, label %if.then7
    i8 13, label %if.then7
  ]

if.then7:                                         ; preds = %while.body, %while.body
  %incdec.ptr = getelementptr inbounds i8, ptr %3, i64 1
  store ptr %incdec.ptr, ptr %mP, align 8
  %mLineNumber = getelementptr inbounds i8, ptr %this, i64 40
  %5 = load i32, ptr %mLineNumber, align 8
  %inc = add i32 %5, 1
  store i32 %inc, ptr %mLineNumber, align 8
  br label %while.end

if.end9:                                          ; preds = %while.body
  %incdec.ptr11 = getelementptr inbounds i8, ptr %3, i64 1
  store ptr %incdec.ptr11, ptr %mP, align 8
  %exitcond.not = icmp eq ptr %incdec.ptr11, %2
  br i1 %exitcond.not, label %while.end, label %while.body, !llvm.loop !7

while.end:                                        ; preds = %if.end9, %while.cond.preheader, %entry, %if.then7
  ret void
}